Certificate:
    Data:
        Version: 3 (0x2)
        Serial Number: 0 (0x0)
    Signature Algorithm: sha256WithRSAEncryption
        Issuer: CN=CA DEV, ST=Moscow, C=RU/emailAddress=www@www.com, O=Kometa, OU=Development
        Validity
            Not Before: Jun  1 00:22:41 2018 GMT
            Not After : May 31 00:22:41 2023 GMT
        Subject: CN=localhost, ST=Moscow, C=RU/emailAddress=www@www.com, O=Kometa, OU=Development
        Subject Public Key Info:
            Public Key Algorithm: rsaEncryption
                Public-Key: (2048 bit)
                Modulus:
                    00:c8:68:70:97:cb:9e:0a:43:26:98:c2:75:6e:a3:
                    b2:6f:3c:0d:e8:8e:74:6d:25:fa:65:c7:c5:0f:4b:
                    51:92:ed:19:ce:e2:a5:7a:42:36:91:af:32:14:0f:
                    6a:f9:fa:2d:93:3d:69:10:4c:13:c1:72:f1:16:1f:
                    1f:f4:7c:fc:5b:b2:d4:22:e2:fd:2b:3d:c9:34:ac:
                    14:7b:f2:72:e1:17:a7:fa:2f:48:c1:4b:c8:52:2f:
                    8b:7d:e0:d8:34:4e:15:41:25:1d:fc:d6:9f:70:6c:
                    be:5d:26:c7:91:df:83:73:7e:04:8e:61:05:ad:e8:
                    22:4e:f6:79:b9:c5:41:b5:65:06:dd:6f:6c:c9:73:
                    73:21:3e:dd:79:83:02:65:17:a4:23:4b:e2:76:3b:
                    72:ca:0d:9f:15:fb:0a:15:e8:8c:0c:49:d0:8b:fb:
                    d0:77:64:38:d5:89:17:ad:da:92:64:8a:e9:41:c6:
                    cf:bc:e1:36:12:a4:fb:63:03:6c:37:5d:04:83:4f:
                    4a:30:b3:e4:35:1c:7f:e7:61:b5:3d:0e:db:2b:e6:
                    d5:08:6e:49:02:cd:45:e8:6f:9f:b0:95:12:5a:03:
                    d9:45:79:6e:b9:dd:f2:8f:20:1c:87:13:97:9a:b3:
                    96:cf:86:a5:3a:f3:e9:3c:ee:46:76:be:50:84:8d:
                    06:79
                Exponent: 65537 (0x10001)
        X509v3 extensions:
            X509v3 Basic Constraints: 
                CA:FALSE
            X509v3 Key Usage: 
                Digital Signature, Non Repudiation, Key Encipherment
            X509v3 Subject Alternative Name: 
                DNS:localhost
    Signature Algorithm: sha256WithRSAEncryption
         19:12:b9:c5:0d:bb:a8:64:96:43:38:43:6b:15:fc:64:c1:9b:
         04:33:76:6a:da:b3:65:01:f2:fb:6d:a2:0b:e8:dd:49:91:a3:
         8c:c7:d2:6d:cb:41:7d:2a:62:9e:8d:4c:43:68:ff:cf:33:e6:
         a7:a6:78:46:b0:33:7b:f8:97:3a:54:c3:c2:47:6d:fc:c8:8e:
         e7:8a:b9:77:a8:3b:07:c1:7d:6d:c5:9d:7d:25:2c:da:44:b3:
         55:f1:b8:ad:ab:82:10:fd:c4:de:c0:51:15:e8:4c:5c:39:64:
         fb:cd:ce:b7:ea:92:d4:4a:c3:19:e8:db:49:2d:47:58:08:f6:
         f2:5c:60:cf:19:ca:c9:a8:2c:ff:c0:7a:66:e0:e0:ab:50:c6:
         23:9c:35:b3:50:b4:b0:46:c4:52:45:91:0d:9d:17:1a:41:b9:
         36:30:1a:71:43:38:20:1e:12:00:93:e3:f9:47:df:d4:ae:5d:
         49:9c:a6:df:06:4d:dc:70:6d:c1:e3:68:58:62:c1:20:88:9f:
         e7:44:d1:56:a4:5b:a3:13:ca:90:a8:b4:6f:cb:36:59:46:30:
         bf:fe:5b:11:79:3a:9d:d6:2e:ce:01:d3:41:25:42:f7:4d:72:
         b1:e8:0f:ee:34:78:76:43:c1:f4:7d:ac:4b:8f:e0:70:04:8d:
         ac:18:04:29
-----BEGIN CERTIFICATE-----
MIIDkjCCAnqgAwIBAgIBADANBgkqhkiG9w0BAQsFADByMQ8wDQYDVQQDDAZDQSBE
RVYxDzANBgNVBAgMBk1vc2NvdzELMAkGA1UEBhMCUlUxGjAYBgkqhkiG9w0BCQEW
C3d3d0B3d3cuY29tMQ8wDQYDVQQKDAZLb21ldGExFDASBgNVBAsMC0RldmVsb3Bt
ZW50MB4XDTE4MDYwMTAwMjI0MVoXDTIzMDUzMTAwMjI0MVowdTESMBAGA1UEAwwJ
bG9jYWxob3N0MQ8wDQYDVQQIDAZNb3Njb3cxCzAJBgNVBAYTAlJVMRowGAYJKoZI
hvcNAQkBFgt3d3dAd3d3LmNvbTEPMA0GA1UECgwGS29tZXRhMRQwEgYDVQQLDAtE
ZXZlbG9wbWVudDCCASIwDQYJKoZIhvcNAQEBBQADggEPADCCAQoCggEBAMhocJfL
ngpDJpjCdW6jsm88DeiOdG0l+mXHxQ9LUZLtGc7ipXpCNpGvMhQPavn6LZM9aRBM
E8Fy8RYfH/R8/Fuy1CLi/Ss9yTSsFHvycuEXp/ovSMFLyFIvi33g2DROFUElHfzW
n3Bsvl0mx5Hfg3N+BI5hBa3oIk72ebnFQbVlBt1vbMlzcyE+3XmDAmUXpCNL4nY7
csoNnxX7ChXojAxJ0Iv70HdkONWJF63akmSK6UHGz7zhNhKk+2MDbDddBINPSjCz
5DUcf+dhtT0O2yvm1QhuSQLNRehvn7CVEloD2UV5brnd8o8gHIcTl5qzls+GpTrz
6TzuRna+UISNBnkCAwEAAaMwMC4wCQYDVR0TBAIwADALBgNVHQ8EBAMCBeAwFAYD
VR0RBA0wC4IJbG9jYWxob3N0MA0GCSqGSIb3DQEBCwUAA4IBAQAZErnFDbuoZJZD
OENrFfxkwZsEM3Zq2rNlAfL7baIL6N1JkaOMx9Jty0F9KmKejUxDaP/PM+anpnhG
sDN7+Jc6VMPCR238yI7nirl3qDsHwX1txZ19JSzaRLNV8bitq4IQ/cTewFEV6Exc
OWT7zc636pLUSsMZ6NtJLUdYCPbyXGDPGcrJqCz/wHpm4OCrUMYjnDWzULSwRsRS
RZENnRcaQbk2MBpxQzggHhIAk+P5R9/Url1JnKbfBk3ccG3B42hYYsEgiJ/nRNFW
pFujE8qQqLRvyzZZRjC//lsReTqd1i7OAdNBJUL3TXKx6A/uNHh2Q8H0faxLj+Bw
BI2sGAQp
-----END CERTIFICATE-----
